target datalayout = "e-m:e-p270:32:32-p271:32:32-p272:64:64-i64:64-i128:128-f80:128-n8:16:32:64-S128"
target triple = "x86_64-pc-linux-gnu"

@hf_fmp_hostID = internal global i32 0, align 4
@hf_fmp_btime = internal global i32 0, align 4
@hf_fmp_time_sec = internal global i32 0, align 4
@hf_fmp_time_nsec = internal global i32 0, align 4
@hf_fmp_sessionHandle = internal global i32 0, align 4
@hf_fmp_heartbeat_interval = internal global i32 0, align 4

; Function Attrs: null_pointer_is_valid sspstrong uwtable
define internal i32 @dissect_fmp_heartBeatIntv(ptr noundef %0, i32 noundef %1, ptr noundef %2, ptr noundef %3) #0 {
  %5 = alloca ptr, align 8
  %6 = alloca i32, align 4
  %7 = alloca ptr, align 8
  %8 = alloca ptr, align 8
  store ptr %0, ptr %5, align 8
  store i32 %1, ptr %6, align 4
  store ptr %2, ptr %7, align 8
  store ptr %3, ptr %8, align 8
  %9 = load ptr, ptr %8, align 8
  %10 = load i32, ptr @hf_fmp_heartbeat_interval, align 4
  %11 = load ptr, ptr %5, align 8
  %12 = load i32, ptr %6, align 4
  %13 = call ptr @proto_tree_add_item(ptr noundef %9, i32 noundef %10, ptr noundef %11, i32 noundef %12, i32 noundef 8, i32 noundef 0)
  %14 = load i32, ptr %6, align 4
  %15 = add i32 %14, 8
  store i32 %15, ptr %6, align 4
  %16 = load i32, ptr %6, align 4
  ret i32 %16
}

; Function Attrs: null_pointer_is_valid sspstrong uwtable
define internal i32 @dissect_FMP_SessionCreate_reply(ptr noundef %0, ptr noundef %1, ptr noundef %2, ptr noundef %3) #0 {
  %5 = alloca ptr, align 8
  %6 = alloca ptr, align 8
  %7 = alloca ptr, align 8
  %8 = alloca ptr, align 8
  %9 = alloca i32, align 4
  %10 = alloca i32, align 4
  store ptr %0, ptr %5, align 8
  store ptr %1, ptr %6, align 8
  store ptr %2, ptr %7, align 8
  store ptr %3, ptr %8, align 8
  call void @llvm.lifetime.start.p0(i64 4, ptr %9) #4
  call void @llvm.lifetime.start.p0(i64 4, ptr %10) #4
  store i32 0, ptr %10, align 4
  %11 = load ptr, ptr %5, align 8
  %12 = load i32, ptr %10, align 4
  %13 = load ptr, ptr %7, align 8
  %14 = call i32 @dissect_fmp_status(ptr noundef %11, i32 noundef %12, ptr noundef %13, ptr noundef %9)
  store i32 %14, ptr %10, align 4
  %15 = load i32, ptr %9, align 4
  %16 = icmp eq i32 %15, 0
  br i1 %16, label %17, label %41

17:                                               ; preds = %4
  %18 = load ptr, ptr %5, align 8
  %19 = load ptr, ptr %7, align 8
  %20 = load i32, ptr @hf_fmp_sessionHandle, align 4
  %21 = load i32, ptr %10, align 4
  %22 = call i32 @dissect_rpc_data(ptr noundef %18, ptr noundef %19, i32 noundef %20, i32 noundef %21)
  store i32 %22, ptr %10, align 4
  %23 = load ptr, ptr %5, align 8
  %24 = load ptr, ptr %7, align 8
  %25 = load i32, ptr @hf_fmp_hostID, align 4
  %26 = load i32, ptr %10, align 4
  %27 = call i32 @dissect_rpc_string(ptr noundef %23, ptr noundef %24, i32 noundef %25, i32 noundef %26, ptr noundef null)
  store i32 %27, ptr %10, align 4
  %28 = load ptr, ptr %5, align 8
  %29 = load i32, ptr %10, align 4
  %30 = load ptr, ptr %6, align 8
  %31 = load ptr, ptr %7, align 8
  %32 = load i32, ptr @hf_fmp_btime, align 4
  %33 = load i32, ptr @hf_fmp_time_sec, align 4
  %34 = load i32, ptr @hf_fmp_time_nsec, align 4
  %35 = call i32 @dissect_fmp_timeval(ptr noundef %28, i32 noundef %29, ptr noundef %30, ptr noundef %31, i32 noundef %32, i32 noundef %33, i32 noundef %34)
  store i32 %35, ptr %10, align 4
  %36 = load ptr, ptr %5, align 8
  %37 = load i32, ptr %10, align 4
  %38 = load ptr, ptr %6, align 8
  %39 = load ptr, ptr %7, align 8
  %40 = call i32 @dissect_fmp_heartBeatIntv(ptr noundef %36, i32 noundef %37, ptr noundef %38, ptr noundef %39)
  store i32 %40, ptr %10, align 4
  br label %41

41:                                               ; preds = %17, %4
  %42 = load i32, ptr %10, align 4
  call void @llvm.lifetime.end.p0(i64 4, ptr %10) #4
  call void @llvm.lifetime.end.p0(i64 4, ptr %9) #4
  ret i32 %42
}